; Function Attrs: mustprogress uwtable
define void @_ZN6google8protobuf10FloatValue8CopyFromERKS1_(ptr noundef nonnull align 8 dereferenceable(24) %this, ptr noundef nonnull readonly align 8 dereferenceable(24) %from) local_unnamed_addr #3 align 2 {
entry:
  %cmp = icmp eq ptr %from, %this
  br i1 %cmp, label %return, label %if.end

if.end:                                           ; preds = %entry
  %0 = getelementptr inbounds i8, ptr %this, i64 16
  store float 0.000000e+00, ptr %0, align 8
  %_internal_metadata_.i = getelementptr inbounds i8, ptr %this, i64 8
  %1 = load i64, ptr %_internal_metadata_.i, align 8
  %and.i.i = and i64 %1, 1
  %tobool.i.not.i = icmp eq i64 %and.i.i, 0
  br i1 %tobool.i.not.i, label %_ZN6google8protobuf10FloatValue5ClearEv.exit, label %if.then.i.i

if.then.i.i:                                      ; preds = %if.end
  tail call void @_ZN6google8protobuf8internal16InternalMetadata7DoClearINS0_15UnknownFieldSetEEEvv(ptr noundef nonnull align 8 dereferenceable(8) %_internal_metadata_.i)
  br label %_ZN6google8protobuf10FloatValue5ClearEv.exit

_ZN6google8protobuf10FloatValue5ClearEv.exit:     ; preds = %if.end, %if.then.i.i
  %2 = getelementptr inbounds i8, ptr %from, i64 16
  %3 = load float, ptr %2, align 8
  %cmp.not.i.i = tail call i1 @llvm.is.fpclass.f32(float %3, i32 64)
  br i1 %cmp.not.i.i, label %if.end.i.i, label %if.then.i.i2

if.then.i.i2:                                     ; preds = %_ZN6google8protobuf10FloatValue5ClearEv.exit
  store float %3, ptr %0, align 8
  br label %if.end.i.i

if.end.i.i:                                       ; preds = %if.then.i.i2, %_ZN6google8protobuf10FloatValue5ClearEv.exit
  %_internal_metadata_3.i.i = getelementptr inbounds i8, ptr %from, i64 8
  %4 = load i64, ptr %_internal_metadata_3.i.i, align 8
  %and.i8.i.i = and i64 %4, 1
  %tobool.i9.not.i.i = icmp eq i64 %and.i8.i.i, 0
  br i1 %tobool.i9.not.i.i, label %return, label %if.then.i.i.i.i

if.then.i.i.i.i:                                  ; preds = %if.end.i.i
  %and.i.i.i = and i64 %4, -2
  %5 = inttoptr i64 %and.i.i.i to ptr
  %unknown_fields.i.i.i.i = getelementptr inbounds i8, ptr %5, i64 8
  tail call void @_ZN6google8protobuf8internal16InternalMetadata11DoMergeFromINS0_15UnknownFieldSetEEEvRKT_(ptr noundef nonnull align 8 dereferenceable(8) %_internal_metadata_.i, ptr noundef nonnull align 8 dereferenceable(24) %unknown_fields.i.i.i.i)
  br label %return

return:                                           ; preds = %if.then.i.i.i.i, %if.end.i.i, %entry
  ret void
}